target datalayout = "e-m:e-p270:32:32-p271:32:32-p272:64:64-i64:64-i128:128-f80:128-n8:16:32:64-S128"
target triple = "x86_64-unknown-linux-gnu"

%"class.proxygen::ByteEventTracker" = type { ptr, i64, %"class.boost::intrusive::list", ptr }
%"class.boost::intrusive::list" = type { %"class.boost::intrusive::list_impl" }
%"class.boost::intrusive::list_impl" = type { %"struct.boost::intrusive::list_impl<boost::intrusive::mhtraits<proxygen::ByteEvent, boost::intrusive::list_member_hook<boost::intrusive::link_mode<boost::intrusive::safe_link>>, &proxygen::ByteEvent::listHook>, unsigned long, true, void>::data_t" }
%"struct.boost::intrusive::list_impl<boost::intrusive::mhtraits<proxygen::ByteEvent, boost::intrusive::list_member_hook<boost::intrusive::link_mode<boost::intrusive::safe_link>>, &proxygen::ByteEvent::listHook>, unsigned long, true, void>::data_t" = type { %"struct.boost::intrusive::list_impl<boost::intrusive::mhtraits<proxygen::ByteEvent, boost::intrusive::list_member_hook<boost::intrusive::link_mode<boost::intrusive::safe_link>>, &proxygen::ByteEvent::listHook>, unsigned long, true, void>::root_plus_size" }
%"struct.boost::intrusive::list_impl<boost::intrusive::mhtraits<proxygen::ByteEvent, boost::intrusive::list_member_hook<boost::intrusive::link_mode<boost::intrusive::safe_link>>, &proxygen::ByteEvent::listHook>, unsigned long, true, void>::root_plus_size" = type { %"struct.boost::intrusive::detail::size_holder", %"struct.boost::intrusive::detail::default_header_holder" }
%"struct.boost::intrusive::detail::size_holder" = type { i64 }
%"struct.boost::intrusive::detail::default_header_holder" = type { %"struct.boost::intrusive::list_node" }
%"struct.boost::intrusive::list_node" = type { ptr, ptr }
%"class.std::function" = type { %"class.std::_Function_base", ptr }
%"class.std::_Function_base" = type { %"union.std::_Any_data", ptr }
%"union.std::_Any_data" = type { %"union.std::_Nocopy_types" }
%"union.std::_Nocopy_types" = type { { i64, i64 } }

; Function Attrs: mustprogress nounwind uwtable
define linkonce_odr noundef zeroext i1 @_ZNKSt14_Function_base8_M_emptyEv(ptr noundef nonnull align 8 dereferenceable(24) %this) #4 comdat align 2 {
entry:
  %this.addr = alloca ptr, align 8
  store ptr %this, ptr %this.addr, align 8
  %this1 = load ptr, ptr %this.addr, align 8
  %_M_manager = getelementptr inbounds %"class.std::_Function_base", ptr %this1, i32 0, i32 1
  %0 = load ptr, ptr %_M_manager, align 8
  %tobool = icmp ne ptr %0, null
  %lnot = xor i1 %tobool, true
  ret i1 %lnot
}

; Function Attrs: mustprogress nounwind uwtable
define linkonce_odr void @_ZN5boost9intrusive24circular_list_algorithmsINS0_16list_node_traitsIPvEEE11link_beforeEPNS0_9list_nodeIS3_EES8_(ptr noundef %nxt_node, ptr noundef %this_node) #4 comdat align 2 {
entry:
  %n.addr.i7 = alloca ptr, align 8
  %n.addr.i4 = alloca ptr, align 8
  %prev.addr.i5 = alloca ptr, align 8
  %n.addr.i3 = alloca ptr, align 8
  %prev.addr.i = alloca ptr, align 8
  %n.addr.i1 = alloca ptr, align 8
  %next.addr.i2 = alloca ptr, align 8
  %n.addr.i = alloca ptr, align 8
  %next.addr.i = alloca ptr, align 8
  %nxt_node.addr = alloca ptr, align 8
  %this_node.addr = alloca ptr, align 8
  %prev = alloca ptr, align 8
  store ptr %nxt_node, ptr %nxt_node.addr, align 8
  store ptr %this_node, ptr %this_node.addr, align 8
  %0 = load ptr, ptr %nxt_node.addr, align 8
  store ptr %0, ptr %n.addr.i7, align 8
  %1 = load ptr, ptr %n.addr.i7, align 8
  %prev_.i8 = getelementptr inbounds %"struct.boost::intrusive::list_node", ptr %1, i32 0, i32 1
  %2 = load ptr, ptr %prev_.i8, align 8
  store ptr %2, ptr %prev, align 8
  %3 = load ptr, ptr %this_node.addr, align 8
  %4 = load ptr, ptr %prev, align 8
  store ptr %3, ptr %n.addr.i4, align 8
  store ptr %4, ptr %prev.addr.i5, align 8
  %5 = load ptr, ptr %prev.addr.i5, align 8
  %6 = load ptr, ptr %n.addr.i4, align 8
  %prev_.i6 = getelementptr inbounds %"struct.boost::intrusive::list_node", ptr %6, i32 0, i32 1
  store ptr %5, ptr %prev_.i6, align 8
  %7 = load ptr, ptr %this_node.addr, align 8
  %8 = load ptr, ptr %nxt_node.addr, align 8
  store ptr %7, ptr %n.addr.i1, align 8
  store ptr %8, ptr %next.addr.i2, align 8
  %9 = load ptr, ptr %next.addr.i2, align 8
  %10 = load ptr, ptr %n.addr.i1, align 8
  store ptr %9, ptr %10, align 8
  %11 = load ptr, ptr %nxt_node.addr, align 8
  %12 = load ptr, ptr %this_node.addr, align 8
  store ptr %11, ptr %n.addr.i3, align 8
  store ptr %12, ptr %prev.addr.i, align 8
  %13 = load ptr, ptr %prev.addr.i, align 8
  %14 = load ptr, ptr %n.addr.i3, align 8
  %prev_.i = getelementptr inbounds %"struct.boost::intrusive::list_node", ptr %14, i32 0, i32 1
  store ptr %13, ptr %prev_.i, align 8
  %15 = load ptr, ptr %prev, align 8
  %16 = load ptr, ptr %this_node.addr, align 8
  store ptr %15, ptr %n.addr.i, align 8
  store ptr %16, ptr %next.addr.i, align 8
  %17 = load ptr, ptr %next.addr.i, align 8
  %18 = load ptr, ptr %n.addr.i, align 8
  store ptr %17, ptr %18, align 8
  ret void
}

; Function Attrs: mustprogress nounwind uwtable
define linkonce_odr void @_ZNSt14_Function_baseD2Ev(ptr noundef nonnull align 8 dereferenceable(24) %this) unnamed_addr #4 comdat align 2 personality ptr @__gxx_personality_v0 {
entry:
  %this.addr = alloca ptr, align 8
  store ptr %this, ptr %this.addr, align 8
  %this1 = load ptr, ptr %this.addr, align 8
  %_M_manager = getelementptr inbounds %"class.std::_Function_base", ptr %this1, i32 0, i32 1
  %0 = load ptr, ptr %_M_manager, align 8
  %tobool = icmp ne ptr %0, null
  br i1 %tobool, label %if.then, label %if.end

if.then:                                          ; preds = %entry
  %_M_manager2 = getelementptr inbounds %"class.std::_Function_base", ptr %this1, i32 0, i32 1
  %1 = load ptr, ptr %_M_manager2, align 8
  %_M_functor = getelementptr inbounds %"class.std::_Function_base", ptr %this1, i32 0, i32 0
  %_M_functor3 = getelementptr inbounds %"class.std::_Function_base", ptr %this1, i32 0, i32 0
  %call = invoke noundef zeroext i1 %1(ptr noundef nonnull align 8 dereferenceable(16) %_M_functor, ptr noundef nonnull align 8 dereferenceable(16) %_M_functor3, i32 noundef 3)
          to label %invoke.cont unwind label %terminate.lpad

invoke.cont:                                      ; preds = %if.then
  br label %if.end

if.end:                                           ; preds = %invoke.cont, %entry
  ret void

terminate.lpad:                                   ; preds = %if.then
  %2 = landingpad { ptr, i32 }
          catch ptr null
  %3 = extractvalue { ptr, i32 } %2, 0
  call void @__clang_call_terminate(ptr %3) #14
  unreachable
}

; Function Attrs: mustprogress nounwind uwtable
define linkonce_odr noundef zeroext i1 @_ZNKSt8functionIFvRN8proxygen9ByteEventEEEcvbEv(ptr noundef nonnull align 8 dereferenceable(32) %this) #4 comdat align 2 personality ptr @__gxx_personality_v0 {
entry:
  %this.addr = alloca ptr, align 8
  store ptr %this, ptr %this.addr, align 8
  %this1 = load ptr, ptr %this.addr, align 8
  %call = invoke noundef zeroext i1 @_ZNKSt14_Function_base8_M_emptyEv(ptr noundef nonnull align 8 dereferenceable(24) %this1)
          to label %invoke.cont unwind label %terminate.lpad

invoke.cont:                                      ; preds = %entry
  %lnot = xor i1 %call, true
  ret i1 %lnot

terminate.lpad:                                   ; preds = %entry
  %0 = landingpad { ptr, i32 }
          catch ptr null
  %1 = extractvalue { ptr, i32 } %0, 0
  call void @__clang_call_terminate(ptr %1) #14
  unreachable
}

; Function Attrs: mustprogress nounwind uwtable
define linkonce_odr void @_ZNSt14_Function_baseC2Ev(ptr noundef nonnull align 8 dereferenceable(24) %this) unnamed_addr #4 comdat align 2 {
entry:
  %this.addr = alloca ptr, align 8
  store ptr %this, ptr %this.addr, align 8
  %this1 = load ptr, ptr %this.addr, align 8
  %_M_functor = getelementptr inbounds %"class.std::_Function_base", ptr %this1, i32 0, i32 0
  store ptr null, ptr %_M_functor, align 8
  %_M_manager = getelementptr inbounds %"class.std::_Function_base", ptr %this1, i32 0, i32 1
  store ptr null, ptr %_M_manager, align 8
  ret void
}

; Function Attrs: mustprogress nounwind uwtable
define linkonce_odr void @_ZNSt8functionIFvRN8proxygen9ByteEventEEED2Ev(ptr noundef nonnull align 8 dereferenceable(32) %this) unnamed_addr #4 comdat align 2 {
entry:
  %this.addr = alloca ptr, align 8
  store ptr %this, ptr %this.addr, align 8
  %this1 = load ptr, ptr %this.addr, align 8
  call void @_ZNSt14_Function_baseD2Ev(ptr noundef nonnull align 8 dereferenceable(24) %this1) #3
  ret void
}

; Function Attrs: mustprogress nounwind uwtable
define linkonce_odr void @_ZN5boost9intrusive9list_implINS0_8mhtraitsIN8proxygen9ByteEventENS0_16list_member_hookIJNS0_9link_modeILNS0_14link_mode_typeE1EEEEEEXadL_ZNS4_8listHookEEEEEmLb1EvE9push_backERS4_(ptr noundef nonnull align 8 dereferenceable(24) %this, ptr noundef nonnull align 8 dereferenceable(64) %value) #4 comdat align 2 personality ptr @__gxx_personality_v0 {
entry:
  %this.addr.i14 = alloca ptr, align 8
  %v.addr.i.i = alloca ptr, align 8
  %r.addr.i.i = alloca ptr, align 8
  %value.addr.i = alloca ptr, align 8
  %v.addr.i = alloca ptr, align 8
  %r.addr.i = alloca ptr, align 8
  %this.addr.i11 = alloca ptr, align 8
  %this.addr.i9 = alloca ptr, align 8
  %this.addr.i7 = alloca ptr, align 8
  %this.addr.i = alloca ptr, align 8
  %this.addr = alloca ptr, align 8
  %value.addr = alloca ptr, align 8
  %to_insert = alloca ptr, align 8
  store ptr %this, ptr %this.addr, align 8
  store ptr %value, ptr %value.addr, align 8
  %this1 = load ptr, ptr %this.addr, align 8
  store ptr %this1, ptr %this.addr.i7, align 8
  %0 = load ptr, ptr %value.addr, align 8
  store ptr %0, ptr %value.addr.i, align 8
  %1 = load ptr, ptr %value.addr.i, align 8
  %memptr.offset.i = getelementptr inbounds i8, ptr %1, i64 8
  store ptr %memptr.offset.i, ptr %r.addr.i.i, align 8
  %2 = load ptr, ptr %r.addr.i.i, align 8
  store ptr %2, ptr %v.addr.i.i, align 8
  %3 = load ptr, ptr %v.addr.i.i, align 8
  br label %invoke.cont

invoke.cont:                                      ; preds = %entry
  store ptr %3, ptr %to_insert, align 8
  store ptr %this1, ptr %this.addr.i, align 8
  %this1.i = load ptr, ptr %this.addr.i, align 8
  %m_header.i = getelementptr inbounds %"struct.boost::intrusive::list_impl<boost::intrusive::mhtraits<proxygen::ByteEvent, boost::intrusive::list_member_hook<boost::intrusive::link_mode<boost::intrusive::safe_link>>, &proxygen::ByteEvent::listHook>, unsigned long, true, void>::root_plus_size", ptr %this1.i, i32 0, i32 1
  store ptr %m_header.i, ptr %this.addr.i11, align 8
  %this1.i12 = load ptr, ptr %this.addr.i11, align 8
  store ptr %this1.i12, ptr %r.addr.i, align 8
  %4 = load ptr, ptr %r.addr.i, align 8
  store ptr %4, ptr %v.addr.i, align 8
  %5 = load ptr, ptr %v.addr.i, align 8
  br label %invoke.cont3

invoke.cont3:                                     ; preds = %invoke.cont
  %6 = load ptr, ptr %to_insert, align 8
  call void @_ZN5boost9intrusive24circular_list_algorithmsINS0_16list_node_traitsIPvEEE11link_beforeEPNS0_9list_nodeIS3_EES8_(ptr noundef %5, ptr noundef %6) #3
  store ptr %this1, ptr %this.addr.i9, align 8
  %this1.i10 = load ptr, ptr %this.addr.i9, align 8
  store ptr %this1.i10, ptr %this.addr.i14, align 8
  %this1.i15 = load ptr, ptr %this.addr.i14, align 8
  %7 = load i64, ptr %this1.i15, align 8
  %inc.i = add i64 %7, 1
  store i64 %inc.i, ptr %this1.i15, align 8
  br label %invoke.cont6

invoke.cont6:                                     ; preds = %invoke.cont3
  ret void

terminate.lpad:                                   ; No predecessors!
  %8 = landingpad { ptr, i32 }
          catch ptr null
  %9 = extractvalue { ptr, i32 } %8, 0
  call void @__clang_call_terminate(ptr %9) #14
  unreachable
}

; Function Attrs: mustprogress uwtable
define linkonce_odr void @_ZNSt8functionIFvRN8proxygen9ByteEventEEEC2ERKS4_(ptr noundef nonnull align 8 dereferenceable(32) %this, ptr noundef nonnull align 8 dereferenceable(32) %__x) unnamed_addr #7 comdat align 2 personality ptr @__gxx_personality_v0 {
entry:
  %this.addr = alloca ptr, align 8
  %__x.addr = alloca ptr, align 8
  %exn.slot = alloca ptr, align 8
  %ehselector.slot = alloca i32, align 4
  store ptr %this, ptr %this.addr, align 8
  store ptr %__x, ptr %__x.addr, align 8
  %this1 = load ptr, ptr %this.addr, align 8
  %0 = getelementptr inbounds i8, ptr %this1, i64 0
  call void @llvm.memset.p0.i64(ptr align 8 %0, i8 0, i64 24, i1 false)
  call void @_ZNSt14_Function_baseC2Ev(ptr noundef nonnull align 8 dereferenceable(24) %this1) #3
  %_M_invoker = getelementptr inbounds %"class.std::function", ptr %this1, i32 0, i32 1
  store ptr null, ptr %_M_invoker, align 8
  %1 = load ptr, ptr %__x.addr, align 8
  %call = call noundef zeroext i1 @_ZNKSt8functionIFvRN8proxygen9ByteEventEEEcvbEv(ptr noundef nonnull align 8 dereferenceable(32) %1) #3
  br i1 %call, label %if.then, label %if.end

if.then:                                          ; preds = %entry
  %2 = load ptr, ptr %__x.addr, align 8
  %_M_manager = getelementptr inbounds %"class.std::_Function_base", ptr %2, i32 0, i32 1
  %3 = load ptr, ptr %_M_manager, align 8
  %_M_functor = getelementptr inbounds %"class.std::_Function_base", ptr %this1, i32 0, i32 0
  %4 = load ptr, ptr %__x.addr, align 8
  %_M_functor2 = getelementptr inbounds %"class.std::_Function_base", ptr %4, i32 0, i32 0
  %call3 = invoke noundef zeroext i1 %3(ptr noundef nonnull align 8 dereferenceable(16) %_M_functor, ptr noundef nonnull align 8 dereferenceable(16) %_M_functor2, i32 noundef 2)
          to label %invoke.cont unwind label %lpad

invoke.cont:                                      ; preds = %if.then
  %5 = load ptr, ptr %__x.addr, align 8
  %_M_invoker4 = getelementptr inbounds %"class.std::function", ptr %5, i32 0, i32 1
  %6 = load ptr, ptr %_M_invoker4, align 8
  %_M_invoker5 = getelementptr inbounds %"class.std::function", ptr %this1, i32 0, i32 1
  store ptr %6, ptr %_M_invoker5, align 8
  %7 = load ptr, ptr %__x.addr, align 8
  %_M_manager6 = getelementptr inbounds %"class.std::_Function_base", ptr %7, i32 0, i32 1
  %8 = load ptr, ptr %_M_manager6, align 8
  %_M_manager7 = getelementptr inbounds %"class.std::_Function_base", ptr %this1, i32 0, i32 1
  store ptr %8, ptr %_M_manager7, align 8
  br label %if.end

lpad:                                             ; preds = %if.then
  %9 = landingpad { ptr, i32 }
          cleanup
  %10 = extractvalue { ptr, i32 } %9, 0
  store ptr %10, ptr %exn.slot, align 8
  %11 = extractvalue { ptr, i32 } %9, 1
  store i32 %11, ptr %ehselector.slot, align 4
  call void @_ZNSt14_Function_baseD2Ev(ptr noundef nonnull align 8 dereferenceable(24) %this1) #3
  br label %eh.resume

if.end:                                           ; preds = %invoke.cont, %entry
  ret void

eh.resume:                                        ; preds = %lpad
  %exn = load ptr, ptr %exn.slot, align 8
  %sel = load i32, ptr %ehselector.slot, align 4
  %lpad.val = insertvalue { ptr, i32 } poison, ptr %exn, 0
  %lpad.val8 = insertvalue { ptr, i32 } %lpad.val, i32 %sel, 1
  resume { ptr, i32 } %lpad.val8
}

; Function Attrs: mustprogress uwtable
define void @_ZN8proxygen16ByteEventTracker21addFirstBodyByteEventEmPNS_15HTTPTransactionESt8functionIFvRNS_9ByteEventEEE(ptr noundef nonnull align 8 dereferenceable(48) %this, i64 noundef %offset, ptr noundef %txn, ptr noundef %callback) unnamed_addr #7 align 2 personality ptr @__gxx_personality_v0 {
entry:
  %this.addr = alloca ptr, align 8
  %offset.addr = alloca i64, align 8
  %txn.addr = alloca ptr, align 8
  %callback.indirect_addr = alloca ptr, align 8
  %agg.tmp = alloca %"class.std::function", align 8
  %exn.slot = alloca ptr, align 8
  %ehselector.slot = alloca i32, align 4
  %cleanup.isactive = alloca i1, align 1
  store ptr %this, ptr %this.addr, align 8
  store i64 %offset, ptr %offset.addr, align 8
  store ptr %txn, ptr %txn.addr, align 8
  store ptr %callback, ptr %callback.indirect_addr, align 8
  %this1 = load ptr, ptr %this.addr, align 8
  %byteEvents_ = getelementptr inbounds %"class.proxygen::ByteEventTracker", ptr %this1, i32 0, i32 2
  %call = call noalias noundef nonnull ptr @_Znwm(i64 noundef 72) #17
  store i1 true, ptr %cleanup.isactive, align 1
  %0 = load i64, ptr %offset.addr, align 8
  %1 = load ptr, ptr %txn.addr, align 8
  invoke void @_ZNSt8functionIFvRN8proxygen9ByteEventEEEC2ERKS4_(ptr noundef nonnull align 8 dereferenceable(32) %agg.tmp, ptr noundef nonnull align 8 dereferenceable(32) %callback)
          to label %invoke.cont unwind label %lpad

invoke.cont:                                      ; preds = %entry
  invoke void @_ZN8proxygen20TransactionByteEventC2EmNS_9ByteEvent9EventTypeEPNS_15HTTPTransactionESt8functionIFvRS1_EE(ptr noundef nonnull align 8 dereferenceable(72) %call, i64 noundef %0, i32 noundef 0, ptr noundef %1, ptr noundef %agg.tmp)
          to label %invoke.cont3 unwind label %lpad2

invoke.cont3:                                     ; preds = %invoke.cont
  store i1 false, ptr %cleanup.isactive, align 1
  call void @_ZN5boost9intrusive9list_implINS0_8mhtraitsIN8proxygen9ByteEventENS0_16list_member_hookIJNS0_9link_modeILNS0_14link_mode_typeE1EEEEEEXadL_ZNS4_8listHookEEEEEmLb1EvE9push_backERS4_(ptr noundef nonnull align 8 dereferenceable(24) %byteEvents_, ptr noundef nonnull align 8 dereferenceable(64) %call) #3
  call void @_ZNSt8functionIFvRN8proxygen9ByteEventEEED2Ev(ptr noundef nonnull align 8 dereferenceable(32) %agg.tmp) #3
  ret void

lpad:                                             ; preds = %entry
  %2 = landingpad { ptr, i32 }
          cleanup
  %3 = extractvalue { ptr, i32 } %2, 0
  store ptr %3, ptr %exn.slot, align 8
  %4 = extractvalue { ptr, i32 } %2, 1
  store i32 %4, ptr %ehselector.slot, align 4
  br label %ehcleanup

lpad2:                                            ; preds = %invoke.cont
  %5 = landingpad { ptr, i32 }
          cleanup
  %6 = extractvalue { ptr, i32 } %5, 0
  store ptr %6, ptr %exn.slot, align 8
  %7 = extractvalue { ptr, i32 } %5, 1
  store i32 %7, ptr %ehselector.slot, align 4
  call void @_ZNSt8functionIFvRN8proxygen9ByteEventEEED2Ev(ptr noundef nonnull align 8 dereferenceable(32) %agg.tmp) #3
  br label %ehcleanup

ehcleanup:                                        ; preds = %lpad2, %lpad
  %cleanup.is_active = load i1, ptr %cleanup.isactive, align 1
  br i1 %cleanup.is_active, label %cleanup.action, label %cleanup.done

cleanup.action:                                   ; preds = %ehcleanup
  call void @_ZdlPv(ptr noundef %call) #15
  br label %cleanup.done

cleanup.done:                                     ; preds = %cleanup.action, %ehcleanup
  br label %eh.resume

eh.resume:                                        ; preds = %cleanup.done
  %exn = load ptr, ptr %exn.slot, align 8
  %sel = load i32, ptr %ehselector.slot, align 4
  %lpad.val = insertvalue { ptr, i32 } poison, ptr %exn, 0
  %lpad.val4 = insertvalue { ptr, i32 } %lpad.val, i32 %sel, 1
  resume { ptr, i32 } %lpad.val4
}