; Function Attrs: mustprogress uwtable
define void @_ZN8proxygen16ByteEventTracker21addFirstBodyByteEventEmPNS_15HTTPTransactionESt8functionIFvRNS_9ByteEventEEE(ptr noundef nonnull align 8 dereferenceable(48) %this, i64 noundef %offset, ptr noundef %txn, ptr noundef %callback) unnamed_addr #7 align 2 personality ptr @__gxx_personality_v0 {
entry:
  %agg.tmp = alloca %"class.std::function", align 8
  %call = tail call noalias noundef nonnull dereferenceable(72) ptr @_Znwm(i64 noundef 72) #16
  %_M_manager.i.i = getelementptr inbounds i8, ptr %agg.tmp, i64 16
  %_M_manager.i.i.i = getelementptr inbounds i8, ptr %callback, i64 16
  call void @llvm.memset.p0.i64(ptr noundef nonnull align 8 dereferenceable(32) %agg.tmp, i8 0, i64 32, i1 false)
  %0 = load ptr, ptr %_M_manager.i.i.i, align 8
  %tobool.not.i.i.not.i = icmp eq ptr %0, null
  br i1 %tobool.not.i.i.not.i, label %invoke.cont, label %if.then.i

if.then.i:                                        ; preds = %entry
  %call3.i = invoke noundef zeroext i1 %0(ptr noundef nonnull align 8 dereferenceable(16) %agg.tmp, ptr noundef nonnull align 8 dereferenceable(16) %callback, i32 noundef 2)
          to label %invoke.cont.i unwind label %lpad.i

invoke.cont.i:                                    ; preds = %if.then.i
  %1 = load <2 x ptr>, ptr %_M_manager.i.i.i, align 8
  store <2 x ptr> %1, ptr %_M_manager.i.i, align 8
  br label %invoke.cont

lpad.i:                                           ; preds = %if.then.i
  %2 = landingpad { ptr, i32 }
          cleanup
  %3 = load ptr, ptr %_M_manager.i.i, align 8
  %tobool.not.i.i = icmp eq ptr %3, null
  br i1 %tobool.not.i.i, label %cleanup.action, label %if.then.i.i

if.then.i.i:                                      ; preds = %lpad.i
  %call.i.i = invoke noundef zeroext i1 %3(ptr noundef nonnull align 8 dereferenceable(16) %agg.tmp, ptr noundef nonnull align 8 dereferenceable(16) %agg.tmp, i32 noundef 3)
          to label %cleanup.action unwind label %terminate.lpad.i.i

terminate.lpad.i.i:                               ; preds = %if.then.i.i
  %4 = landingpad { ptr, i32 }
          catch ptr null
  %5 = extractvalue { ptr, i32 } %4, 0
  call void @__clang_call_terminate(ptr %5) #14
  unreachable

invoke.cont:                                      ; preds = %invoke.cont.i, %entry
  invoke void @_ZN8proxygen20TransactionByteEventC2EmNS_9ByteEvent9EventTypeEPNS_15HTTPTransactionESt8functionIFvRS1_EE(ptr noundef nonnull align 8 dereferenceable(72) %call, i64 noundef %offset, i32 noundef 0, ptr noundef %txn, ptr noundef nonnull %agg.tmp)
          to label %invoke.cont3 unwind label %lpad2

invoke.cont3:                                     ; preds = %invoke.cont
  %byteEvents_ = getelementptr inbounds i8, ptr %this, i64 16
  %memptr.offset.i.i = getelementptr inbounds i8, ptr %call, i64 8
  %m_header.i.i = getelementptr inbounds i8, ptr %this, i64 24
  %prev_.i8.i.i = getelementptr inbounds i8, ptr %this, i64 32
  %6 = load ptr, ptr %prev_.i8.i.i, align 8
  %prev_.i6.i.i = getelementptr inbounds i8, ptr %call, i64 16
  store ptr %6, ptr %prev_.i6.i.i, align 8
  store ptr %m_header.i.i, ptr %memptr.offset.i.i, align 8
  store ptr %memptr.offset.i.i, ptr %prev_.i8.i.i, align 8
  store ptr %memptr.offset.i.i, ptr %6, align 8
  %7 = load i64, ptr %byteEvents_, align 8
  %inc.i.i = add i64 %7, 1
  store i64 %inc.i.i, ptr %byteEvents_, align 8
  %8 = load ptr, ptr %_M_manager.i.i, align 8
  %tobool.not.i.i3 = icmp eq ptr %8, null
  br i1 %tobool.not.i.i3, label %_ZNSt8functionIFvRN8proxygen9ByteEventEEED2Ev.exit, label %if.then.i.i4

if.then.i.i4:                                     ; preds = %invoke.cont3
  %call.i.i5 = invoke noundef zeroext i1 %8(ptr noundef nonnull align 8 dereferenceable(16) %agg.tmp, ptr noundef nonnull align 8 dereferenceable(16) %agg.tmp, i32 noundef 3)
          to label %_ZNSt8functionIFvRN8proxygen9ByteEventEEED2Ev.exit unwind label %terminate.lpad.i.i6

terminate.lpad.i.i6:                              ; preds = %if.then.i.i4
  %9 = landingpad { ptr, i32 }
          catch ptr null
  %10 = extractvalue { ptr, i32 } %9, 0
  call void @__clang_call_terminate(ptr %10) #14
  unreachable

_ZNSt8functionIFvRN8proxygen9ByteEventEEED2Ev.exit: ; preds = %invoke.cont3, %if.then.i.i4
  ret void

lpad2:                                            ; preds = %invoke.cont
  %11 = landingpad { ptr, i32 }
          cleanup
  %12 = load ptr, ptr %_M_manager.i.i, align 8
  %tobool.not.i.i9 = icmp eq ptr %12, null
  br i1 %tobool.not.i.i9, label %cleanup.action, label %if.then.i.i10

if.then.i.i10:                                    ; preds = %lpad2
  %call.i.i11 = invoke noundef zeroext i1 %12(ptr noundef nonnull align 8 dereferenceable(16) %agg.tmp, ptr noundef nonnull align 8 dereferenceable(16) %agg.tmp, i32 noundef 3)
          to label %cleanup.action unwind label %terminate.lpad.i.i12

terminate.lpad.i.i12:                             ; preds = %if.then.i.i10
  %13 = landingpad { ptr, i32 }
          catch ptr null
  %14 = extractvalue { ptr, i32 } %13, 0
  call void @__clang_call_terminate(ptr %14) #14
  unreachable

cleanup.action:                                   ; preds = %if.then.i.i10, %lpad2, %if.then.i.i, %lpad.i
  %.pn = phi { ptr, i32 } [ %2, %if.then.i.i ], [ %2, %lpad.i ], [ %11, %lpad2 ], [ %11, %if.then.i.i10 ]
  call void @_ZdlPv(ptr noundef nonnull %call) #15
  resume { ptr, i32 } %.pn
}